(lp0
(S'Message'
p1
S'my title'
p2
S'This is my message!'
p3
S'test'
p4
I0
tp5
a(g1
S'my title'
p6
S'This is my message!'
p7
S'test'
p8
I1
tp9
a(g1
S'sfsf'
p10
S'test'
p11
g8
I2
tp12
a(g1
S'Message Title'
p13
S'Message'
p14
g4
I3
tp15
a.