((dp0
S'test'
p1
ccopy_reg
_reconstructor
p2
(cmeeplib
User
p3
c__builtin__
object
p4
Ntp5
Rp6
(dp7
S'username'
p8
g1
sS'password'
p9
S'foo'
p10
sS'id'
p11
I0
sbs(dp12
I0
g6
s(dp13
I1
g2
(cmeeplib
Topic
p14
g4
Ntp15
Rp16
(dp17
S'author'
p18
g6
sS'messages'
p19
(dp20
I0
g2
(cmeeplib
Message
p21
g4
Ntp22
Rp23
(dp24
S'post'
p25
S'Message'
p26
sg18
g6
sg11
I1
sS'title'
p27
S'Title'
p28
sbssg11
I1
sg27
S'Topic'
p29
sbsI2
g2
(g14
g4
Ntp30
Rp31
(dp32
g18
g6
sg19
(dp33
I0
g2
(g21
g4
Ntp34
Rp35
(dp36
g25
S'No'
p37
sg18
g6
sg11
I3
sg27
S'Yes'
p38
sbsI1
g2
(g21
g4
Ntp39
Rp40
(dp41
g25
S'Confused'
p42
sg18
g6
sg11
I4
sg27
S'RE: Yes'
p43
sbssg11
I2
sg27
S'Testing Topic'
p44
sbs(dp45
I0
g2
(g21
g4
Ntp46
Rp47
(dp48
g25
S'This is my message!'
p49
sg18
g6
sg11
I0
sg27
S'my title'
p50
sbsI1
g23
sI2
g2
(g21
g4
Ntp51
Rp52
(dp53
g25
S'<br>In post 0, test said:<blockquote>This is my message!</blockquote>'
p54
sg18
g6
sg11
I2
sg27
S'RE: my title'
p55
sbsI3
g35
sI4
g40
stp56
.